target datalayout = "e-m:e-p270:32:32-p271:32:32-p272:64:64-i64:64-i128:128-f80:128-n8:16:32:64-S128"
target triple = "x86_64-pc-linux-gnu"

%"class.icu_77::UMutex" = type { [40 x i8], %"struct.std::atomic", ptr }
%"struct.std::atomic" = type { %"struct.std::__atomic_base" }
%"struct.std::__atomic_base" = type { ptr }
%"class.icu_77::Mutex" = type { ptr }

@_ZL13registryMutex = internal global %"class.icu_77::UMutex" zeroinitializer, align 8
@_ZL8registry = internal global ptr null, align 8

; Function Attrs: mustprogress nounwind uwtable
define linkonce_odr void @_ZN6icu_775MutexD2Ev(ptr noundef nonnull align 8 dereferenceable(8) %0) unnamed_addr #0 comdat align 2 personality ptr @__gxx_personality_v0 {
  %2 = alloca ptr, align 8
  store ptr %0, ptr %2, align 8, !tbaa !133
  %3 = load ptr, ptr %2, align 8
  %4 = getelementptr inbounds nuw %"class.icu_77::Mutex", ptr %3, i32 0, i32 0
  %5 = load ptr, ptr %4, align 8, !tbaa !137
  invoke void @umtx_unlock_77(ptr noundef %5)
          to label %6 unwind label %7

6:                                                ; preds = %1
  ret void

7:                                                ; preds = %1
  %8 = landingpad { ptr, i32 }
          catch ptr null
  %9 = extractvalue { ptr, i32 } %8, 0
  call void @__clang_call_terminate(ptr %9) #17
  unreachable
}

; Function Attrs: mustprogress uwtable
define void @_ZN6icu_7714Transliterator14_registerAliasERKNS_13UnicodeStringES3_(ptr noundef nonnull align 8 dereferenceable(64) %0, ptr noundef nonnull align 8 dereferenceable(64) %1) #1 align 2 {
  %3 = alloca ptr, align 8
  %4 = alloca ptr, align 8
  %5 = alloca i32, align 4
  store ptr %0, ptr %3, align 8, !tbaa !25
  store ptr %1, ptr %4, align 8, !tbaa !25
  call void @llvm.lifetime.start.p0(i64 4, ptr %5) #15
  store i32 0, ptr %5, align 4, !tbaa !15
  %6 = load ptr, ptr @_ZL8registry, align 8, !tbaa !86
  %7 = load ptr, ptr %3, align 8, !tbaa !25
  %8 = load ptr, ptr %4, align 8, !tbaa !25
  call void @_ZN6icu_7722TransliteratorRegistry3putERKNS_13UnicodeStringES3_aaR10UErrorCode(ptr noundef nonnull align 8 dereferenceable(312) %6, ptr noundef nonnull align 8 dereferenceable(64) %7, ptr noundef nonnull align 8 dereferenceable(64) %8, i8 noundef signext 0, i8 noundef signext 1, ptr noundef nonnull align 4 dereferenceable(4) %5)
  call void @llvm.lifetime.end.p0(i64 4, ptr %5) #15
  ret void
}

; Function Attrs: mustprogress uwtable
define linkonce_odr void @_ZN6icu_775MutexC2EPNS_6UMutexE(ptr noundef nonnull align 8 dereferenceable(8) %0, ptr noundef %1) unnamed_addr #1 comdat align 2 {
  %3 = alloca ptr, align 8
  %4 = alloca ptr, align 8
  store ptr %0, ptr %3, align 8, !tbaa !133
  store ptr %1, ptr %4, align 8, !tbaa !135
  %5 = load ptr, ptr %3, align 8
  %6 = getelementptr inbounds nuw %"class.icu_77::Mutex", ptr %5, i32 0, i32 0
  %7 = load ptr, ptr %4, align 8, !tbaa !135
  store ptr %7, ptr %6, align 8, !tbaa !137
  %8 = getelementptr inbounds nuw %"class.icu_77::Mutex", ptr %5, i32 0, i32 0
  %9 = load ptr, ptr %8, align 8, !tbaa !137
  call void @umtx_lock_77(ptr noundef %9)
  ret void
}

; Function Attrs: mustprogress uwtable
define void @_ZN6icu_7714Transliterator13registerAliasERKNS_13UnicodeStringES3_(ptr noundef nonnull align 8 dereferenceable(64) %0, ptr noundef nonnull align 8 dereferenceable(64) %1) #1 align 2 personality ptr @__gxx_personality_v0 {
  %3 = alloca ptr, align 8
  %4 = alloca ptr, align 8
  %5 = alloca %"class.icu_77::Mutex", align 8
  %6 = alloca i32, align 4
  %7 = alloca ptr, align 8
  %8 = alloca i32, align 4
  store ptr %0, ptr %3, align 8, !tbaa !25
  store ptr %1, ptr %4, align 8, !tbaa !25
  call void @llvm.lifetime.start.p0(i64 8, ptr %5) #15
  call void @_ZN6icu_775MutexC2EPNS_6UMutexE(ptr noundef nonnull align 8 dereferenceable(8) %5, ptr noundef @_ZL13registryMutex)
  call void @llvm.lifetime.start.p0(i64 4, ptr %6) #15
  store i32 0, ptr %6, align 4, !tbaa !15
  %9 = load ptr, ptr @_ZL8registry, align 8, !tbaa !86
  %10 = icmp ne ptr %9, null
  br i1 %10, label %15, label %11

11:                                               ; preds = %2
  %12 = invoke noundef signext i8 @_ZN6icu_7714Transliterator18initializeRegistryER10UErrorCode(ptr noundef nonnull align 4 dereferenceable(4) %6)
          to label %13 unwind label %19

13:                                               ; preds = %11
  %14 = icmp ne i8 %12, 0
  br i1 %14, label %15, label %23

15:                                               ; preds = %13, %2
  %16 = load ptr, ptr %3, align 8, !tbaa !25
  %17 = load ptr, ptr %4, align 8, !tbaa !25
  invoke void @_ZN6icu_7714Transliterator14_registerAliasERKNS_13UnicodeStringES3_(ptr noundef nonnull align 8 dereferenceable(64) %16, ptr noundef nonnull align 8 dereferenceable(64) %17)
          to label %18 unwind label %19

18:                                               ; preds = %15
  br label %23

19:                                               ; preds = %15, %11
  %20 = landingpad { ptr, i32 }
          cleanup
  %21 = extractvalue { ptr, i32 } %20, 0
  store ptr %21, ptr %7, align 8
  %22 = extractvalue { ptr, i32 } %20, 1
  store i32 %22, ptr %8, align 4
  call void @llvm.lifetime.end.p0(i64 4, ptr %6) #15
  call void @_ZN6icu_775MutexD2Ev(ptr noundef nonnull align 8 dereferenceable(8) %5) #15
  call void @llvm.lifetime.end.p0(i64 8, ptr %5) #15
  br label %24

23:                                               ; preds = %18, %13
  call void @llvm.lifetime.end.p0(i64 4, ptr %6) #15
  call void @_ZN6icu_775MutexD2Ev(ptr noundef nonnull align 8 dereferenceable(8) %5) #15
  call void @llvm.lifetime.end.p0(i64 8, ptr %5) #15
  ret void

24:                                               ; preds = %19
  %25 = load ptr, ptr %7, align 8
  %26 = load i32, ptr %8, align 4
  %27 = insertvalue { ptr, i32 } poison, ptr %25, 0
  %28 = insertvalue { ptr, i32 } %27, i32 %26, 1
  resume { ptr, i32 } %28
}