; Function Attrs: mustprogress uwtable
define void @_ZN6icu_7714Transliterator13registerAliasERKNS_13UnicodeStringES3_(ptr noundef nonnull align 8 dereferenceable(64) %0, ptr noundef nonnull align 8 dereferenceable(64) %1) local_unnamed_addr #1 align 2 personality ptr @__gxx_personality_v0 {
  %3 = alloca i32, align 4
  %4 = alloca i32, align 4
  tail call void @umtx_lock_77(ptr noundef nonnull @_ZL13registryMutex)
  call void @llvm.lifetime.start.p0(i64 4, ptr nonnull %4) #21
  store i32 0, ptr %4, align 4, !tbaa !13
  %5 = load ptr, ptr @_ZL8registry, align 8, !tbaa !49
  %.not = icmp eq ptr %5, null
  br i1 %.not, label %6, label %9

6:                                                ; preds = %2
  %7 = invoke noundef signext i8 @_ZN6icu_7714Transliterator18initializeRegistryER10UErrorCode(ptr noundef nonnull align 4 dereferenceable(4) %4)
          to label %8 unwind label %11

8:                                                ; preds = %6
  %.not3 = icmp eq i8 %7, 0
  br i1 %.not3, label %16, label %._crit_edge

._crit_edge:                                      ; preds = %8
  %.pre = load ptr, ptr @_ZL8registry, align 8, !tbaa !49
  br label %9

9:                                                ; preds = %._crit_edge, %2
  %10 = phi ptr [ %.pre, %._crit_edge ], [ %5, %2 ]
  call void @llvm.lifetime.start.p0(i64 4, ptr nonnull %3) #21
  store i32 0, ptr %3, align 4, !tbaa !13
  invoke void @_ZN6icu_7722TransliteratorRegistry3putERKNS_13UnicodeStringES3_aaR10UErrorCode(ptr noundef nonnull align 8 dereferenceable(312) %10, ptr noundef nonnull align 8 dereferenceable(64) %0, ptr noundef nonnull align 8 dereferenceable(64) %1, i8 noundef signext 0, i8 noundef signext 1, ptr noundef nonnull align 4 dereferenceable(4) %3)
          to label %_ZN6icu_7714Transliterator14_registerAliasERKNS_13UnicodeStringES3_.exit unwind label %11

_ZN6icu_7714Transliterator14_registerAliasERKNS_13UnicodeStringES3_.exit: ; preds = %9
  call void @llvm.lifetime.end.p0(i64 4, ptr nonnull %3) #21
  br label %16

11:                                               ; preds = %9, %6
  %12 = landingpad { ptr, i32 }
          cleanup
  call void @llvm.lifetime.end.p0(i64 4, ptr nonnull %4) #21
  invoke void @umtx_unlock_77(ptr noundef nonnull @_ZL13registryMutex)
          to label %_ZN6icu_775MutexD2Ev.exit unwind label %13

13:                                               ; preds = %11
  %14 = landingpad { ptr, i32 }
          catch ptr null
  %15 = extractvalue { ptr, i32 } %14, 0
  call void @__clang_call_terminate(ptr %15) #23
  unreachable

_ZN6icu_775MutexD2Ev.exit:                        ; preds = %11
  resume { ptr, i32 } %12

16:                                               ; preds = %_ZN6icu_7714Transliterator14_registerAliasERKNS_13UnicodeStringES3_.exit, %8
  call void @llvm.lifetime.end.p0(i64 4, ptr nonnull %4) #21
  invoke void @umtx_unlock_77(ptr noundef nonnull @_ZL13registryMutex)
          to label %_ZN6icu_775MutexD2Ev.exit4 unwind label %17

17:                                               ; preds = %16
  %18 = landingpad { ptr, i32 }
          catch ptr null
  %19 = extractvalue { ptr, i32 } %18, 0
  call void @__clang_call_terminate(ptr %19) #23
  unreachable

_ZN6icu_775MutexD2Ev.exit4:                       ; preds = %16
  ret void
}